target datalayout = "e-m:e-p270:32:32-p271:32:32-p272:64:64-i64:64-i128:128-f80:128-n8:16:32:64-S128"
target triple = "x86_64-pc-linux-gnu"

%struct.Gia_Man_t_ = type { ptr, ptr, i32, i32, i32, i32, ptr, ptr, i32, i32, i32, ptr, ptr, %struct.Vec_Int_t_, %struct.Vec_Int_t_, i32, i32, i32, %struct.Vec_Int_t_, ptr, ptr, ptr, i32, i32, i32, i32, ptr, ptr, ptr, ptr, ptr, i32, i32, ptr, i32, ptr, ptr, ptr, ptr, ptr, ptr, ptr, ptr, ptr, ptr, ptr, ptr, ptr, ptr, ptr, ptr, ptr, ptr, %struct.Vec_Int_t_, %struct.Vec_Int_t_, ptr, ptr, ptr, ptr, ptr, ptr, ptr, ptr, ptr, ptr, ptr, ptr, ptr, ptr, ptr, ptr, ptr, ptr, ptr, ptr, ptr, i32, float, float, ptr, ptr, i32, ptr, ptr, ptr, ptr, ptr, ptr, ptr, ptr, ptr, ptr, ptr, ptr, ptr, ptr, ptr, i64, i64, ptr, ptr, i32, i32, i32, i32, i32, i32, i32, i32, i32, i32, i32, i32, ptr, ptr, ptr, ptr, ptr, ptr, ptr, ptr, i32, i32, i32, ptr, i32, i32, ptr, ptr, ptr, ptr, ptr, ptr, i32, i32, ptr, %struct.Vec_Int_t_, %struct.Vec_Int_t_, %struct.Vec_Int_t_, ptr, ptr, ptr }
%struct.Vec_Int_t_ = type { i32, i32, ptr }
%struct.Gia_Rpr_t_ = type { i32 }

; Function Attrs: nounwind uwtable
define i32 @Gia_ManFindRepr_rec(ptr noundef %0, i32 noundef %1) #0 {
  %3 = alloca i32, align 4
  %4 = alloca ptr, align 8
  %5 = alloca i32, align 4
  store ptr %0, ptr %4, align 8
  store i32 %1, ptr %5, align 4
  %6 = load ptr, ptr %4, align 8
  %7 = load i32, ptr %5, align 4
  %8 = sext i32 %7 to i64
  %9 = getelementptr inbounds i32, ptr %6, i64 %8
  %10 = load i32, ptr %9, align 4
  %11 = icmp eq i32 %10, 0
  br i1 %11, label %12, label %13

12:                                               ; preds = %2
  store i32 0, ptr %3, align 4
  br label %30

13:                                               ; preds = %2
  %14 = load ptr, ptr %4, align 8
  %15 = load i32, ptr %5, align 4
  %16 = sext i32 %15 to i64
  %17 = getelementptr inbounds i32, ptr %14, i64 %16
  %18 = load i32, ptr %17, align 4
  %19 = icmp eq i32 %18, -1
  br i1 %19, label %20, label %22

20:                                               ; preds = %13
  %21 = load i32, ptr %5, align 4
  store i32 %21, ptr %3, align 4
  br label %30

22:                                               ; preds = %13
  %23 = load ptr, ptr %4, align 8
  %24 = load ptr, ptr %4, align 8
  %25 = load i32, ptr %5, align 4
  %26 = sext i32 %25 to i64
  %27 = getelementptr inbounds i32, ptr %24, i64 %26
  %28 = load i32, ptr %27, align 4
  %29 = call i32 @Gia_ManFindRepr_rec(ptr noundef %23, i32 noundef %28)
  store i32 %29, ptr %3, align 4
  br label %30

30:                                               ; preds = %22, %20, %12
  %31 = load i32, ptr %3, align 4
  ret i32 %31
}

; Function Attrs: nounwind uwtable
define internal void @Gia_ObjSetRepr(ptr noundef %0, i32 noundef %1, i32 noundef %2) #0 {
  %4 = alloca ptr, align 8
  %5 = alloca i32, align 4
  %6 = alloca i32, align 4
  store ptr %0, ptr %4, align 8
  store i32 %1, ptr %5, align 4
  store i32 %2, ptr %6, align 4
  %7 = load i32, ptr %6, align 4
  %8 = load ptr, ptr %4, align 8
  %9 = getelementptr inbounds %struct.Gia_Man_t_, ptr %8, i32 0, i32 27
  %10 = load ptr, ptr %9, align 8
  %11 = load i32, ptr %5, align 4
  %12 = sext i32 %11 to i64
  %13 = getelementptr inbounds %struct.Gia_Rpr_t_, ptr %10, i64 %12
  %14 = load i32, ptr %13, align 4
  %15 = and i32 %7, 268435455
  %16 = and i32 %14, -268435456
  %17 = or i32 %16, %15
  store i32 %17, ptr %13, align 4
  ret void
}

; Function Attrs: nounwind uwtable
define internal i32 @Gia_ManObjNum(ptr noundef %0) #0 {
  %2 = alloca ptr, align 8
  store ptr %0, ptr %2, align 8
  %3 = load ptr, ptr %2, align 8
  %4 = getelementptr inbounds %struct.Gia_Man_t_, ptr %3, i32 0, i32 4
  %5 = load i32, ptr %4, align 8
  ret i32 %5
}

; Function Attrs: nounwind uwtable
define void @Gia_ManNormalizeEquivalences(ptr noundef %0, ptr noundef %1) #0 {
  %3 = alloca ptr, align 8
  %4 = alloca ptr, align 8
  %5 = alloca i32, align 4
  %6 = alloca i32, align 4
  store ptr %0, ptr %3, align 8
  store ptr %1, ptr %4, align 8
  %7 = load ptr, ptr %3, align 8
  %8 = call i32 @Gia_ManObjNum(ptr noundef %7)
  %9 = sext i32 %8 to i64
  %10 = call noalias ptr @calloc(i64 noundef %9, i64 noundef 4) #13
  %11 = load ptr, ptr %3, align 8
  %12 = getelementptr inbounds %struct.Gia_Man_t_, ptr %11, i32 0, i32 27
  store ptr %10, ptr %12, align 8
  store i32 0, ptr %5, align 4
  br label %13

13:                                               ; preds = %21, %2
  %14 = load i32, ptr %5, align 4
  %15 = load ptr, ptr %3, align 8
  %16 = call i32 @Gia_ManObjNum(ptr noundef %15)
  %17 = icmp slt i32 %14, %16
  br i1 %17, label %18, label %24

18:                                               ; preds = %13
  %19 = load ptr, ptr %3, align 8
  %20 = load i32, ptr %5, align 4
  call void @Gia_ObjSetRepr(ptr noundef %19, i32 noundef %20, i32 noundef 268435455)
  br label %21

21:                                               ; preds = %18
  %22 = load i32, ptr %5, align 4
  %23 = add nsw i32 %22, 1
  store i32 %23, ptr %5, align 4
  br label %13, !llvm.loop !16

24:                                               ; preds = %13
  store i32 0, ptr %5, align 4
  br label %25

25:                                               ; preds = %45, %24
  %26 = load i32, ptr %5, align 4
  %27 = load ptr, ptr %3, align 8
  %28 = call i32 @Gia_ManObjNum(ptr noundef %27)
  %29 = icmp slt i32 %26, %28
  br i1 %29, label %30, label %48

30:                                               ; preds = %25
  %31 = load ptr, ptr %4, align 8
  %32 = load i32, ptr %5, align 4
  %33 = sext i32 %32 to i64
  %34 = getelementptr inbounds i32, ptr %31, i64 %33
  %35 = load i32, ptr %34, align 4
  %36 = icmp eq i32 %35, -1
  br i1 %36, label %37, label %38

37:                                               ; preds = %30
  br label %45

38:                                               ; preds = %30
  %39 = load ptr, ptr %4, align 8
  %40 = load i32, ptr %5, align 4
  %41 = call i32 @Gia_ManFindRepr_rec(ptr noundef %39, i32 noundef %40)
  store i32 %41, ptr %6, align 4
  %42 = load ptr, ptr %3, align 8
  %43 = load i32, ptr %5, align 4
  %44 = load i32, ptr %6, align 4
  call void @Gia_ObjSetRepr(ptr noundef %42, i32 noundef %43, i32 noundef %44)
  br label %45

45:                                               ; preds = %38, %37
  %46 = load i32, ptr %5, align 4
  %47 = add nsw i32 %46, 1
  store i32 %47, ptr %5, align 4
  br label %25, !llvm.loop !17

48:                                               ; preds = %25
  %49 = load ptr, ptr %3, align 8
  %50 = call ptr @Gia_ManDeriveNexts(ptr noundef %49)
  %51 = load ptr, ptr %3, align 8
  %52 = getelementptr inbounds %struct.Gia_Man_t_, ptr %51, i32 0, i32 28
  store ptr %50, ptr %52, align 8
  ret void
}