; Function Attrs: nounwind uwtable
define void @Gia_ManNormalizeEquivalences(ptr noundef initializes((192, 200)) %0, ptr noundef readonly captures(none) %1) local_unnamed_addr #3 {
  %3 = getelementptr i8, ptr %0, i64 24
  %.val19 = load i32, ptr %3, align 8
  %4 = sext i32 %.val19 to i64
  %5 = tail call noalias ptr @calloc(i64 noundef %4, i64 noundef 4) #22
  %6 = getelementptr inbounds nuw i8, ptr %0, i64 192
  store ptr %5, ptr %6, align 8
  %7 = icmp sgt i32 %.val19, 0
  br i1 %7, label %.lr.ph, label %._crit_edge

.preheader:                                       ; preds = %.lr.ph
  %8 = icmp sgt i32 %.val18, 0
  br i1 %8, label %.lr.ph27, label %._crit_edge

.lr.ph:                                           ; preds = %2, %.lr.ph
  %indvars.iv = phi i64 [ %indvars.iv.next, %.lr.ph ], [ 0, %2 ]
  %.val20 = load ptr, ptr %6, align 8
  %9 = getelementptr inbounds nuw %struct.Gia_Rpr_t_, ptr %.val20, i64 %indvars.iv
  %10 = load i32, ptr %9, align 4
  %11 = or i32 %10, 268435455
  store i32 %11, ptr %9, align 4
  %indvars.iv.next = add nuw nsw i64 %indvars.iv, 1
  %.val18 = load i32, ptr %3, align 8
  %12 = sext i32 %.val18 to i64
  %13 = icmp slt i64 %indvars.iv.next, %12
  br i1 %13, label %.lr.ph, label %.preheader, !llvm.loop !16

.lr.ph27:                                         ; preds = %.preheader, %26
  %.val35 = phi i32 [ %.val, %26 ], [ %.val18, %.preheader ]
  %indvars.iv31 = phi i64 [ %indvars.iv.next32, %26 ], [ 0, %.preheader ]
  %14 = getelementptr inbounds nuw i32, ptr %1, i64 %indvars.iv31
  %15 = load i32, ptr %14, align 4
  %16 = icmp eq i32 %15, -1
  br i1 %16, label %26, label %tailrecurse.i.preheader

tailrecurse.i.preheader:                          ; preds = %.lr.ph27
  %17 = trunc nuw nsw i64 %indvars.iv31 to i32
  br label %tailrecurse.i

tailrecurse.i:                                    ; preds = %tailrecurse.i.preheader, %tailrecurse.i
  %.tr9.i = phi i32 [ %20, %tailrecurse.i ], [ %17, %tailrecurse.i.preheader ]
  %18 = sext i32 %.tr9.i to i64
  %19 = getelementptr inbounds i32, ptr %1, i64 %18
  %20 = load i32, ptr %19, align 4
  switch i32 %20, label %tailrecurse.i [
    i32 0, label %Gia_ManFindRepr_rec.exit
    i32 -1, label %Gia_ManFindRepr_rec.exit.loopexit
  ]

Gia_ManFindRepr_rec.exit.loopexit:                ; preds = %tailrecurse.i
  %21 = and i32 %.tr9.i, 268435455
  br label %Gia_ManFindRepr_rec.exit

Gia_ManFindRepr_rec.exit:                         ; preds = %tailrecurse.i, %Gia_ManFindRepr_rec.exit.loopexit
  %.0.i = phi i32 [ %21, %Gia_ManFindRepr_rec.exit.loopexit ], [ %20, %tailrecurse.i ]
  %.val21 = load ptr, ptr %6, align 8
  %22 = getelementptr inbounds nuw %struct.Gia_Rpr_t_, ptr %.val21, i64 %indvars.iv31
  %23 = load i32, ptr %22, align 4
  %24 = and i32 %23, -268435456
  %25 = or disjoint i32 %24, %.0.i
  store i32 %25, ptr %22, align 4
  %.val.pre = load i32, ptr %3, align 8
  br label %26

26:                                               ; preds = %.lr.ph27, %Gia_ManFindRepr_rec.exit
  %.val = phi i32 [ %.val35, %.lr.ph27 ], [ %.val.pre, %Gia_ManFindRepr_rec.exit ]
  %indvars.iv.next32 = add nuw nsw i64 %indvars.iv31, 1
  %27 = sext i32 %.val to i64
  %28 = icmp slt i64 %indvars.iv.next32, %27
  br i1 %28, label %.lr.ph27, label %._crit_edge, !llvm.loop !17

._crit_edge:                                      ; preds = %26, %2, %.preheader
  %29 = tail call ptr @Gia_ManDeriveNexts(ptr noundef nonnull %0) #19
  %30 = getelementptr inbounds nuw i8, ptr %0, i64 200
  store ptr %29, ptr %30, align 8
  ret void
}